target datalayout = "e-m:e-p270:32:32-p271:32:32-p272:64:64-i64:64-i128:128-f80:128-n8:16:32:64-S128"
target triple = "x86_64-unknown-linux-gnu"

%"class.FLAC::Metadata::SimpleIterator" = type { ptr, ptr }

; Function Attrs: mustprogress sspstrong uwtable
define noundef zeroext i1 @_ZN4FLAC8Metadata14SimpleIterator12delete_blockEb(ptr noundef nonnull align 8 dereferenceable(16) %this, i1 noundef zeroext %use_padding) #0 align 2 {
entry:
  %this.addr = alloca ptr, align 8
  %use_padding.addr = alloca i8, align 1
  store ptr %this, ptr %this.addr, align 8
  %frombool = zext i1 %use_padding to i8
  store i8 %frombool, ptr %use_padding.addr, align 1
  %this1 = load ptr, ptr %this.addr, align 8
  %iterator_ = getelementptr inbounds %"class.FLAC::Metadata::SimpleIterator", ptr %this1, i32 0, i32 1
  %0 = load ptr, ptr %iterator_, align 8
  %1 = load i8, ptr %use_padding.addr, align 1
  %tobool = trunc i8 %1 to i1
  %conv = zext i1 %tobool to i32
  %call = call i32 @FLAC__metadata_simple_iterator_delete_block(ptr noundef %0, i32 noundef %conv)
  %tobool2 = icmp ne i32 %call, 0
  ret i1 %tobool2
}